; Function Attrs: nounwind uwtable
define void @glfwSetClipboardString(ptr noundef readnone captures(none) %0, ptr noundef %1) local_unnamed_addr #0 {
  %3 = load i32, ptr @_glfw, align 8, !tbaa !170
  %.not = icmp eq i32 %3, 0
  br i1 %.not, label %4, label %5

4:                                                ; preds = %2
  tail call void (i32, ptr, ...) @_glfwInputError(i32 noundef 65537, ptr noundef null) #12
  br label %7

5:                                                ; preds = %2
  %6 = load ptr, ptr getelementptr inbounds nuw (i8, ptr @_glfw, i64 152), align 8, !tbaa !203
  tail call void %6(ptr noundef %1) #12
  br label %7

7:                                                ; preds = %5, %4
  ret void
}